(dp0
S'cookies'
p1
(dp2
S'wxloadtime'
p3
S'1492489997_expired'
p4
sS'webwx_data_ticket'
p5
S'gSdhGZEgs5hrns+Z1BGyiZxc'
p6
sS'wxuin'
p7
S'2966625951'
p8
sS'login_frequency'
p9
S'2'
p10
sS'MM_WX_NOTIFY_STATE'
p11
S'1'
p12
sS'MM_WX_SOUND_STATE'
p13
g12
sS'webwx_auth_ticket'
p14
S'CIsBEJ2/8eILGoABYjr+Ru8OYWluoHH6FBtwBrCB7GzKxTwBIoV0u/pPMkyG/yL4HOplWAzmxwOFQ8F26Yqsr5uZH+4rNTFSAAPj6jNM1tc+NWtioySJw6FIcO/K9vaSZwQ2zTFyZpNw7Tr8d9YfmsxsD2Qx+8S711WxwKCfXD9pDjCmfdDqipLj+G4='
p15
sS'last_wxuin'
p16
S'965176200'
p17
sS'webwxuvid'
p18
S'39b50dcfac4de9132b8918f36465b0e70e7b604ae50da05a45b845771e6d55bf444c60a56d8cf32a37c12757c4b57558'
p19
sS'wxpluginkey'
p20
S'1492488008'
p21
sS'wxsid'
p22
S'g3/T683xb75Bbzl7'
p23
sS'mm_lang'
p24
S'zh_CN'
p25
ssS'version'
p26
S'1.3.4'
p27
sS'storage'
p28
(dp29
S'userName'
p30
V
p31
sS'lastInputUserName'
p32
NsS'memberList'
p33
ccopy_reg
_reconstructor
p34
(citchat.storage.templates
ContactList
p35
c__builtin__
list
p36
(lp37
g34
(citchat.storage.templates
User
p38
c__builtin__
dict
p39
(dp40
S'UserName'
p41
g31
sS'City'
p42
S''
p43
sS'DisplayName'
p44
g43
sS'UniFriend'
p45
I0
sS'OwnerUin'
p46
I0
sS'MemberList'
p47
(lp48
sS'PYQuanPin'
p49
g31
sS'RemarkPYInitial'
p50
g31
sS'Uin'
p51
I0
sS'AppAccountFlag'
p52
I0
sS'VerifyFlag'
p53
I0
sS'Province'
p54
g43
sS'KeyWord'
p55
g43
sS'RemarkName'
p56
g31
sS'PYInitial'
p57
g31
sS'ChatRoomId'
p58
I0
sS'HideInputBarFlag'
p59
I0
sVHeadImgFlag
p60
I0
sS'EncryChatRoomId'
p61
g43
sS'AttrStatus'
p62
I0
sS'SnsFlag'
p63
I0
sS'MemberCount'
p64
I0
sVWebWxPluginSwitch
p65
I0
sS'Alias'
p66
g43
sS'Signature'
p67
g31
sS'ContactFlag'
p68
I0
sS'NickName'
p69
g31
sS'RemarkPYQuanPin'
p70
g31
sS'HeadImgUrl'
p71
g31
sS'Sex'
p72
I0
sS'StarFriend'
p73
I0
sS'Statues'
p74
I0
stp75
Rp76
I1
batp77
Rp78
I1
bsS'chatroomList'
p79
g34
(g35
g36
(lp80
tp81
Rp82
I1
bsS'nickName'
p83
g31
sS'mpList'
p84
g34
(g35
g36
(lp85
tp86
Rp87
I1
bssS'loginInfo'
p88
(dp89
S'SyncKey'
p90
(dp91
VCount
p92
I0
sVList
p93
(lp94
ssS'syncUrl'
p95
S'https://webpush.web.wechat.com/cgi-bin/mmwebwx-bin'
p96
sS'skey'
p97
V@crypt_936d9d3e_f705e24147cb313bc6d6178e35900558
p98
sS'wxuin'
p99
V2966625951
p100
sS'synckey'
p101
g43
sS'url'
p102
Vhttps://web.wechat.com/cgi-bin/mmwebwx-bin
p103
sS'pass_ticket'
p104
Vj1ecAyQaOKeK5iaqXKdjmx0U1fWRM6x7LUTNFWKoB6s9o%2Fd8mKRETEkwRQKIyUjc
p105
sS'wxsid'
p106
Vg3/T683xb75Bbzl7
p107
sS'User'
p108
g34
(g38
g39
(dp109
g41
g31
sg42
g43
sg44
g43
sg45
I0
sg47
g48
sg49
g31
sg50
g31
sg72
I0
sg52
I0
sg53
I0
sg54
g43
sg55
g43
sg56
g31
sg57
g31
sg58
I0
sg59
I0
sg60
I0
sg61
g43
sg62
I0
sg65
I0
sg63
I0
sg64
I0
sg46
I0
sg66
g43
sg67
g31
sg68
I0
sg69
g31
sg70
g31
sg71
g31
sg51
I0
sg73
I0
sg74
I0
stp110
Rp111
I1
bsS'InviteStartCount'
p112
I0
sS'fileUrl'
p113
S'https://file.web.wechat.com/cgi-bin/mmwebwx-bin'
p114
sS'BaseRequest'
p115
(dp116
S'Sid'
p117
g107
sS'Skey'
p118
g98
sS'DeviceID'
p119
g105
sS'Uin'
p120
g100
ssS'deviceid'
p121
S'e131399574550141'
p122
ss.