(dp0
S'cookies'
p1
(dp2
S'wxloadtime'
p3
S'1497141011'
p4
sS'webwx_data_ticket'
p5
S'gSeVJfPwaySiCwzSlC7rIM+O'
p6
sS'wxuin'
p7
S'2966625951'
p8
sS'login_frequency'
p9
S'2'
p10
sS'MM_WX_NOTIFY_STATE'
p11
S'1'
p12
sS'MM_WX_SOUND_STATE'
p13
g12
sS'webwx_auth_ticket'
p14
S'CIsBEO+5vaILGoABycknadB6fa+O21S4JLsdzNcDaPKpNsXHNA8VYBJ67AfhpNO+m2TaloJGmzSME59yPMxubFYlcxKwwO4kukyyVhDBMPQHIXcH5ChNRkDytaZGvSCK0N8yMmVRW9DiMTxZih4nSdgRHUkduqTf1FYAKsUstP4y4bjdX4bwPI+Z8c0='
p15
sS'last_wxuin'
p16
S'2966625951'
p17
sS'webwxuvid'
p18
S'83a442d9bbda8450b4ac5f7beb0166fa625f3d77ee34ee5074d169c6e7fecb0774faa6e0f8d45e8f6b5c2908537cecc6'
p19
sS'wxpluginkey'
p20
S'1497141187'
p21
sS'wxsid'
p22
S'UUnrCSgjrs4TRrs0'
p23
sS'mm_lang'
p24
S'zh_CN'
p25
ssS'version'
p26
S'1.3.4'
p27
sS'storage'
p28
(dp29
S'userName'
p30
V@0410750887b6f9050b7b7ed9e71fb5c4f0729247d8cc8bd13fbbdba37157ba9b
p31
sS'lastInputUserName'
p32
NsS'memberList'
p33
ccopy_reg
_reconstructor
p34
(citchat.storage.templates
ContactList
p35
c__builtin__
list
p36
(lp37
g34
(citchat.storage.templates
User
p38
c__builtin__
dict
p39
(dp40
S'UserName'
p41
g31
sS'City'
p42
S''
p43
sS'DisplayName'
p44
g43
sS'UniFriend'
p45
I0
sS'OwnerUin'
p46
I0
sS'MemberList'
p47
(lp48
sS'PYQuanPin'
p49
V
p50
sS'RemarkPYInitial'
p51
g50
sS'Uin'
p52
I2966625951
sS'AppAccountFlag'
p53
I0
sS'VerifyFlag'
p54
I0
sS'Province'
p55
g43
sS'KeyWord'
p56
g43
sS'RemarkName'
p57
g50
sS'PYInitial'
p58
g50
sS'ChatRoomId'
p59
I0
sS'HideInputBarFlag'
p60
I0
sVHeadImgFlag
p61
I1
sS'EncryChatRoomId'
p62
g43
sS'AttrStatus'
p63
I0
sS'SnsFlag'
p64
I0
sS'MemberCount'
p65
I0
sVWebWxPluginSwitch
p66
I0
sS'Alias'
p67
g43
sS'Signature'
p68
Vwww.KudosData.com
p69
sS'ContactFlag'
p70
I0
sS'NickName'
p71
V\u9177\u8c46\u966a\u804a\u59b9
p72
sS'RemarkPYQuanPin'
p73
g50
sS'HeadImgUrl'
p74
V/cgi-bin/mmwebwx-bin/webwxgeticon?seq=101520743&username=@0410750887b6f9050b7b7ed9e71fb5c4f0729247d8cc8bd13fbbdba37157ba9b&skey=@crypt_936d9d3e_e0c782aa463f82be537986665f546aad
p75
sS'Sex'
p76
I2
sS'StarFriend'
p77
I0
sS'Statues'
p78
I0
stp79
Rp80
I1
bag34
(g38
g39
(dp81
VUserName
p82
V@bce68e0ca9f49cce42ceb216c795e1b3
p83
sVCity
p84
g50
sVSnsFlag
p85
I49
sVDisplayName
p86
g50
sVUniFriend
p87
I0
sVMemberCount
p88
I0
sVOwnerUin
p89
I0
sVMemberList
p90
(lp91
sVAlias
p92
g50
sVPYQuanPin
p93
Vbaihei
p94
sVSignature
p95
g50
sVRemarkPYInitial
p96
g50
sVContactFlag
p97
I3
sVUin
p98
I0
sVNickName
p99
V\u767d\u9ed1
p100
sVAppAccountFlag
p101
I0
sVVerifyFlag
p102
I0
sVRemarkPYQuanPin
p103
g50
sVHeadImgUrl
p104
V/cgi-bin/mmwebwx-bin/webwxgeticon?seq=637730151&username=@bce68e0ca9f49cce42ceb216c795e1b3&skey=@crypt_936d9d3e_e0c782aa463f82be537986665f546aad
p105
sVKeyWord
p106
VTel
p107
sVProvince
p108
VAuckland
p109
sVPYInitial
p110
VBH
p111
sVRemarkName
p112
g50
sVIsOwner
p113
I0
sVSex
p114
I1
sVStarFriend
p115
I0
sVHideInputBarFlag
p116
I0
sVChatRoomId
p117
I0
sVEncryChatRoomId
p118
g50
sVAttrStatus
p119
I100902845
sVStatues
p120
I0
stp121
Rp122
I1
bag34
(g38
g39
(dp123
VUserName
p124
V@30d242fdad5fa02f306f4b1fcf6ab6d9
p125
sVCity
p126
g50
sVSnsFlag
p127
I49
sVDisplayName
p128
g50
sVUniFriend
p129
I0
sVMemberCount
p130
I0
sVOwnerUin
p131
I0
sVMemberList
p132
(lp133
sVAlias
p134
g50
sVPYQuanPin
p135
VRichardgulijian
p136
sVSignature
p137
g50
sVRemarkPYInitial
p138
VMRR
p139
sVContactFlag
p140
I257
sVUin
p141
I0
sVNickName
p142
VRichard \u987e\u674e\u5065
p143
sVAppAccountFlag
p144
I0
sVVerifyFlag
p145
I0
sVRemarkPYQuanPin
p146
VMrR
p147
sVHeadImgUrl
p148
V/cgi-bin/mmwebwx-bin/webwxgeticon?seq=637731039&username=@30d242fdad5fa02f306f4b1fcf6ab6d9&skey=@crypt_936d9d3e_e0c782aa463f82be537986665f546aad
p149
sVKeyWord
p150
Va40
p151
sVProvince
p152
g50
sVPYInitial
p153
VRICHARDGLJ
p154
sVRemarkName
p155
VMr. R
p156
sVIsOwner
p157
I0
sVSex
p158
I1
sVStarFriend
p159
I0
sVHideInputBarFlag
p160
I0
sVChatRoomId
p161
I0
sVEncryChatRoomId
p162
g50
sVAttrStatus
p163
I71411815
sVStatues
p164
I0
stp165
Rp166
I1
bag34
(g38
g39
(dp167
VUserName
p168
V@d0befff00aa8c6beb858e165daba9e5b
p169
sVCity
p170
V\u6210\u90fd
p171
sVSnsFlag
p172
I49
sVDisplayName
p173
g50
sVUniFriend
p174
I0
sVMemberCount
p175
I0
sVOwnerUin
p176
I0
sVMemberList
p177
(lp178
sVAlias
p179
g50
sVPYQuanPin
p180
Vbaijie
p181
sVSignature
p182
g50
sVRemarkPYInitial
p183
VMRB
p184
sVContactFlag
p185
I1
sVUin
p186
I0
sVNickName
p187
V\u767d\u6770
p188
sVAppAccountFlag
p189
I0
sVVerifyFlag
p190
I0
sVRemarkPYQuanPin
p191
VMrB
p192
sVHeadImgUrl
p193
V/cgi-bin/mmwebwx-bin/webwxgeticon?seq=637732784&username=@d0befff00aa8c6beb858e165daba9e5b&skey=@crypt_936d9d3e_e0c782aa463f82be537986665f546aad
p194
sVKeyWord
p195
Va34
p196
sVProvince
p197
V\u56db\u5ddd
p198
sVPYInitial
p199
VBJ
p200
sVRemarkName
p201
VMr. B
p202
sVIsOwner
p203
I0
sVSex
p204
I1
sVStarFriend
p205
I0
sVHideInputBarFlag
p206
I0
sVChatRoomId
p207
I0
sVEncryChatRoomId
p208
g50
sVAttrStatus
p209
I71401509
sVStatues
p210
I0
stp211
Rp212
I1
bag34
(g38
g39
(dp213
VUserName
p214
V@b3fc7e625a3af6e88f90cf06f4ca154e
p215
sVCity
p216
g50
sVSnsFlag
p217
I17
sVDisplayName
p218
g50
sVUniFriend
p219
I0
sVMemberCount
p220
I0
sVOwnerUin
p221
I0
sVMemberList
p222
(lp223
sVAlias
p224
g50
sVPYQuanPin
p225
VDiesIrae
p226
sVSignature
p227
g50
sVRemarkPYInitial
p228
g50
sVContactFlag
p229
I1
sVUin
p230
I0
sVNickName
p231
VDies.Irae
p232
sVAppAccountFlag
p233
I0
sVVerifyFlag
p234
I0
sVRemarkPYQuanPin
p235
g50
sVHeadImgUrl
p236
V/cgi-bin/mmwebwx-bin/webwxgeticon?seq=637734986&username=@b3fc7e625a3af6e88f90cf06f4ca154e&skey=@crypt_936d9d3e_e0c782aa463f82be537986665f546aad
p237
sVKeyWord
p238
Vdie
p239
sVProvince
p240
g50
sVPYInitial
p241
VDIESIRAE
p242
sVRemarkName
p243
g50
sVIsOwner
p244
I0
sVSex
p245
I2
sVStarFriend
p246
I0
sVHideInputBarFlag
p247
I0
sVChatRoomId
p248
I0
sVEncryChatRoomId
p249
g50
sVAttrStatus
p250
I113511
sVStatues
p251
I0
stp252
Rp253
I1
batp254
Rp255
I1
bsS'chatroomList'
p256
g34
(g35
g36
(lp257
g34
(citchat.storage.templates
Chatroom
p258
g39
(dp259
VUserName
p260
V@@fe75afa3f33d51c3d11d9e2bc353c944bf5cd4a12028b3a7e165d228802ef429
p261
sVCity
p262
g50
sVDisplayName
p263
g50
sVUniFriend
p264
I0
sS'Self'
p265
g34
(g38
g39
(dp266
g41
g31
sg42
g43
sg44
g43
sg45
I0
sg46
I0
sg47
(lp267
sg49
g50
sg51
g50
sg52
I2966625951
sg53
I0
sg54
I0
sg55
g43
sg56
g43
sg57
g50
sg58
g50
sg59
I0
sg60
I0
sg61
I1
sg62
g43
sg63
I0
sg64
I0
sg65
I0
sg66
I0
sg67
g43
sg68
g69
sg70
I0
sg71
g72
sg73
g50
sg74
g75
sg76
I2
sg77
I0
sg78
I0
stp268
Rp269
I1
bsVMemberList
p270
g34
(g35
g36
(lp271
tp272
Rp273
I1
bsVPYQuanPin
p274
g50
sVRemarkPYInitial
p275
g50
sVSex
p276
I0
sVAppAccountFlag
p277
I0
sVVerifyFlag
p278
I0
sVProvince
p279
g50
sVKeyWord
p280
g50
sVRemarkName
p281
g50
sVPYInitial
p282
g50
sVIsOwner
p283
I0
sVChatRoomId
p284
I0
sVHideInputBarFlag
p285
I0
sVEncryChatRoomId
p286
g50
sVAttrStatus
p287
I0
sVSnsFlag
p288
I0
sVMemberCount
p289
I14
sVOwnerUin
p290
I0
sVAlias
p291
g50
sS'IsAdmin'
p292
NsVSignature
p293
g50
sVContactFlag
p294
I0
sVNickName
p295
V\u673a\u5668\u667a\u80fd\u548c\u5fae\u4fe1
p296
sVRemarkPYQuanPin
p297
g50
sVHeadImgUrl
p298
V/cgi-bin/mmwebwx-bin/webwxgetheadimg?seq=0&username=@@fe75afa3f33d51c3d11d9e2bc353c944bf5cd4a12028b3a7e165d228802ef429&skey=@crypt_936d9d3e_e0c782aa463f82be537986665f546aad
p299
sVUin
p300
I0
sVStarFriend
p301
I0
sVStatues
p302
I1
stp303
Rp304
I1
bag34
(g258
g39
(dp305
VUserName
p306
V@@2132d38ade614dc3ef908836f8824ceee63fb45f405687696fe816d5dc606915
p307
sVCity
p308
g50
sVDisplayName
p309
g50
sVUniFriend
p310
I0
sg265
g34
(g38
g39
(dp311
g41
g31
sg42
g43
sg44
g43
sg45
I0
sg46
I0
sg47
(lp312
sg49
g50
sg51
g50
sg52
I2966625951
sg53
I0
sg54
I0
sg55
g43
sg56
g43
sg57
g50
sg58
g50
sg59
I0
sg60
I0
sg61
I1
sg62
g43
sg63
I0
sg64
I0
sg65
I0
sg66
I0
sg67
g43
sg68
g69
sg70
I0
sg71
g72
sg73
g50
sg74
g75
sg76
I2
sg77
I0
sg78
I0
stp313
Rp314
I1
bsVMemberList
p315
g34
(g35
g36
(lp316
tp317
Rp318
I1
bsVPYQuanPin
p319
VkudoushujukexuefenxiangKudosDatacom
p320
sVRemarkPYInitial
p321
g50
sVSex
p322
I0
sVAppAccountFlag
p323
I0
sVVerifyFlag
p324
I0
sVProvince
p325
g50
sVKeyWord
p326
g50
sVRemarkName
p327
g50
sVPYInitial
p328
VKDSJKXFXKUDOSDATACOM
p329
sVIsOwner
p330
I0
sVChatRoomId
p331
I0
sVHideInputBarFlag
p332
I0
sVEncryChatRoomId
p333
g50
sVAttrStatus
p334
I0
sVSnsFlag
p335
I0
sVMemberCount
p336
I0
sVOwnerUin
p337
I0
sVAlias
p338
g50
sg292
NsVSignature
p339
g50
sVContactFlag
p340
I1
sVNickName
p341
V\u9177\u8c46\u6570\u636e\u79d1\u5b66\u5206\u4eab KudosData.com
p342
sVRemarkPYQuanPin
p343
g50
sVHeadImgUrl
p344
V/cgi-bin/mmwebwx-bin/webwxgetheadimg?seq=637730366&username=@@2132d38ade614dc3ef908836f8824ceee63fb45f405687696fe816d5dc606915&skey=@crypt_936d9d3e_e0c782aa463f82be537986665f546aad
p345
sVUin
p346
I0
sVStarFriend
p347
I0
sVStatues
p348
I0
stp349
Rp350
I1
bag34
(g258
g39
(dp351
VUserName
p352
V@@39e58a80f501729eb7dc34346032f1f26c8f898008d39057ff89e16cc0904344
p353
sVCity
p354
g50
sVDisplayName
p355
g50
sVUniFriend
p356
I0
sg265
g34
(g38
g39
(dp357
g41
g31
sg42
g43
sg44
g43
sg45
I0
sg46
I0
sg47
(lp358
sg49
g50
sg51
g50
sg52
I2966625951
sg53
I0
sg54
I0
sg55
g43
sg56
g43
sg57
g50
sg58
g50
sg59
I0
sg60
I0
sg61
I1
sg62
g43
sg63
I0
sg64
I0
sg65
I0
sg66
I0
sg67
g43
sg68
g69
sg70
I0
sg71
g72
sg73
g50
sg74
g75
sg76
I2
sg77
I0
sg78
I0
stp359
Rp360
I1
bsVMemberList
p361
g34
(g35
g36
(lp362
tp363
Rp364
I1
bsVPYQuanPin
p365
VkudoupeiliaomeiUATX
p366
sVRemarkPYInitial
p367
g50
sVSex
p368
I0
sVAppAccountFlag
p369
I0
sVVerifyFlag
p370
I0
sVProvince
p371
g50
sVKeyWord
p372
g50
sVRemarkName
p373
g50
sVPYInitial
p374
VKDPLMUATX
p375
sVIsOwner
p376
I0
sVChatRoomId
p377
I0
sVHideInputBarFlag
p378
I0
sVEncryChatRoomId
p379
g50
sVAttrStatus
p380
I0
sVSnsFlag
p381
I0
sVMemberCount
p382
I0
sVOwnerUin
p383
I0
sVAlias
p384
g50
sg292
NsVSignature
p385
g50
sVContactFlag
p386
I1
sVNickName
p387
V\u9177\u8c46\u966a\u804a\u59b9UAT-X
p388
sVRemarkPYQuanPin
p389
g50
sVHeadImgUrl
p390
V/cgi-bin/mmwebwx-bin/webwxgetheadimg?seq=637733015&username=@@39e58a80f501729eb7dc34346032f1f26c8f898008d39057ff89e16cc0904344&skey=@crypt_936d9d3e_e0c782aa463f82be537986665f546aad
p391
sVUin
p392
I0
sVStarFriend
p393
I0
sVStatues
p394
I0
stp395
Rp396
I1
bag34
(g258
g39
(dp397
VUserName
p398
V@@d2bbd06e4be95e52c1018468690cd5b35ac1c839b814a66c9f5ba0e050f05d9a
p399
sVCity
p400
g50
sVDisplayName
p401
g50
sVUniFriend
p402
I0
sg265
g34
(g38
g39
(dp403
g41
g31
sg42
g43
sg44
g43
sg45
I0
sg46
I0
sg47
(lp404
sg49
g50
sg51
g50
sg52
I2966625951
sg53
I0
sg54
I0
sg55
g43
sg56
g43
sg57
g50
sg58
g50
sg59
I0
sg60
I0
sg61
I1
sg62
g43
sg63
I0
sg64
I0
sg65
I0
sg66
I0
sg67
g43
sg68
g69
sg70
I0
sg71
g72
sg73
g50
sg74
g75
sg76
I2
sg77
I0
sg78
I0
stp405
Rp406
I1
bsVMemberList
p407
g34
(g35
g36
(lp408
tp409
Rp410
I1
bsVPYQuanPin
p411
VkudoupeiliaomeiUATB
p412
sVRemarkPYInitial
p413
g50
sVSex
p414
I0
sVAppAccountFlag
p415
I0
sVVerifyFlag
p416
I0
sVProvince
p417
g50
sVKeyWord
p418
g50
sVRemarkName
p419
g50
sVPYInitial
p420
VKDPLMUATB
p421
sVIsOwner
p422
I0
sVChatRoomId
p423
I0
sVHideInputBarFlag
p424
I0
sVEncryChatRoomId
p425
g50
sVAttrStatus
p426
I0
sVSnsFlag
p427
I0
sVMemberCount
p428
I0
sVOwnerUin
p429
I0
sVAlias
p430
g50
sg292
NsVSignature
p431
g50
sVContactFlag
p432
I1
sVNickName
p433
V\u9177\u8c46\u966a\u804a\u59b9UAT-B
p434
sVRemarkPYQuanPin
p435
g50
sVHeadImgUrl
p436
V/cgi-bin/mmwebwx-bin/webwxgetheadimg?seq=637732693&username=@@d2bbd06e4be95e52c1018468690cd5b35ac1c839b814a66c9f5ba0e050f05d9a&skey=@crypt_936d9d3e_e0c782aa463f82be537986665f546aad
p437
sVUin
p438
I0
sVStarFriend
p439
I0
sVStatues
p440
I0
stp441
Rp442
I1
bag34
(g258
g39
(dp443
VUserName
p444
V@@26c56077dee977572482c2ca9cc7c7a79dd39cc7bb9985d104bebc7c13a0c1c4
p445
sVCity
p446
g50
sVDisplayName
p447
g50
sVUniFriend
p448
I0
sg265
g34
(g38
g39
(dp449
g41
g31
sg42
g43
sg44
g43
sg45
I0
sg46
I0
sg47
(lp450
sg49
g50
sg51
g50
sg52
I2966625951
sg53
I0
sg54
I0
sg55
g43
sg56
g43
sg57
g50
sg58
g50
sg59
I0
sg60
I0
sg61
I1
sg62
g43
sg63
I0
sg64
I0
sg65
I0
sg66
I0
sg67
g43
sg68
g69
sg70
I0
sg71
g72
sg73
g50
sg74
g75
sg76
I2
sg77
I0
sg78
I0
stp451
Rp452
I1
bsVMemberList
p453
g34
(g35
g36
(lp454
tp455
Rp456
I1
bsVPYQuanPin
p457
VAucklandDataScienceLovers
p458
sVRemarkPYInitial
p459
g50
sVSex
p460
I0
sVAppAccountFlag
p461
I0
sVVerifyFlag
p462
I0
sVProvince
p463
g50
sVKeyWord
p464
g50
sVRemarkName
p465
g50
sVPYInitial
p466
VAUCKLANDDATASCIENCELOVERS
p467
sVIsOwner
p468
I0
sVChatRoomId
p469
I0
sVHideInputBarFlag
p470
I0
sVEncryChatRoomId
p471
g50
sVAttrStatus
p472
I0
sVSnsFlag
p473
I0
sVMemberCount
p474
I0
sVOwnerUin
p475
I0
sVAlias
p476
g50
sg292
NsVSignature
p477
g50
sVContactFlag
p478
I1
sVNickName
p479
VAuckland Data Science Lovers
p480
sVRemarkPYQuanPin
p481
g50
sVHeadImgUrl
p482
V/cgi-bin/mmwebwx-bin/webwxgetheadimg?seq=637731878&username=@@26c56077dee977572482c2ca9cc7c7a79dd39cc7bb9985d104bebc7c13a0c1c4&skey=@crypt_936d9d3e_e0c782aa463f82be537986665f546aad
p483
sVUin
p484
I0
sVStarFriend
p485
I0
sVStatues
p486
I0
stp487
Rp488
I1
bag34
(g258
g39
(dp489
VUserName
p490
V@@2ae5d206e704e69d83bcf388971b10500670b999276d221ab18e5c3b96e1ea6b
p491
sVCity
p492
g50
sVDisplayName
p493
g50
sVUniFriend
p494
I0
sg265
g34
(g38
g39
(dp495
g41
g31
sg42
g43
sg44
g43
sg45
I0
sg46
I0
sg47
(lp496
sg49
g50
sg51
g50
sg52
I2966625951
sg53
I0
sg54
I0
sg55
g43
sg56
g43
sg57
g50
sg58
g50
sg59
I0
sg60
I0
sg61
I1
sg62
g43
sg63
I0
sg64
I0
sg65
I0
sg66
I0
sg67
g43
sg68
g69
sg70
I0
sg71
g72
sg73
g50
sg74
g75
sg76
I2
sg77
I0
sg78
I0
stp497
Rp498
I1
bsVMemberList
p499
g34
(g35
g36
(lp500
tp501
Rp502
I1
bsVPYQuanPin
p503
VkudoupeiliaomeiUATS
p504
sVRemarkPYInitial
p505
g50
sVSex
p506
I0
sVAppAccountFlag
p507
I0
sVVerifyFlag
p508
I0
sVProvince
p509
g50
sVKeyWord
p510
g50
sVRemarkName
p511
g50
sVPYInitial
p512
VKDPLMUATS
p513
sVIsOwner
p514
I1
sVChatRoomId
p515
I0
sVHideInputBarFlag
p516
I0
sVEncryChatRoomId
p517
g50
sVAttrStatus
p518
I0
sVSnsFlag
p519
I0
sVMemberCount
p520
I0
sVOwnerUin
p521
I0
sVAlias
p522
g50
sg292
NsVSignature
p523
g50
sVContactFlag
p524
I3
sVNickName
p525
V\u9177\u8c46\u966a\u804a\u59b9UAT-S
p526
sVRemarkPYQuanPin
p527
g50
sVHeadImgUrl
p528
V/cgi-bin/mmwebwx-bin/webwxgetheadimg?seq=637734542&username=@@2ae5d206e704e69d83bcf388971b10500670b999276d221ab18e5c3b96e1ea6b&skey=@crypt_936d9d3e_e0c782aa463f82be537986665f546aad
p529
sVUin
p530
I0
sVStarFriend
p531
I0
sVStatues
p532
I1
stp533
Rp534
I1
bag34
(g258
g39
(dp535
VUserName
p536
V@@2cc22482d02c4a692fa69fb459e119a9f66f04a7720eaf171249c0fe4f375a89
p537
sVCity
p538
g50
sVDisplayName
p539
g50
sVUniFriend
p540
I0
sg265
g34
(g38
g39
(dp541
g41
g31
sg42
g43
sg44
g43
sg45
I0
sg46
I0
sg47
(lp542
sg49
g50
sg51
g50
sg52
I2966625951
sg53
I0
sg54
I0
sg55
g43
sg56
g43
sg57
g50
sg58
g50
sg59
I0
sg60
I0
sg61
I1
sg62
g43
sg63
I0
sg64
I0
sg65
I0
sg66
I0
sg67
g43
sg68
g69
sg70
I0
sg71
g72
sg73
g50
sg74
g75
sg76
I2
sg77
I0
sg78
I0
stp543
Rp544
I1
bsVMemberList
p545
g34
(g35
g36
(lp546
tp547
Rp548
I1
bsVPYQuanPin
p549
VkudoupeiliaomeiUATR
p550
sVRemarkPYInitial
p551
g50
sVSex
p552
I0
sVAppAccountFlag
p553
I0
sVVerifyFlag
p554
I0
sVProvince
p555
g50
sVKeyWord
p556
g50
sVRemarkName
p557
g50
sVPYInitial
p558
VKDPLMUATR
p559
sVIsOwner
p560
I1
sVChatRoomId
p561
I0
sVHideInputBarFlag
p562
I0
sVEncryChatRoomId
p563
g50
sVAttrStatus
p564
I0
sVSnsFlag
p565
I0
sVMemberCount
p566
I0
sVOwnerUin
p567
I0
sVAlias
p568
g50
sg292
NsVSignature
p569
g50
sVContactFlag
p570
I1
sVNickName
p571
V\u9177\u8c46\u966a\u804a\u59b9UAT-R
p572
sVRemarkPYQuanPin
p573
g50
sVHeadImgUrl
p574
V/cgi-bin/mmwebwx-bin/webwxgetheadimg?seq=637732177&username=@@2cc22482d02c4a692fa69fb459e119a9f66f04a7720eaf171249c0fe4f375a89&skey=@crypt_936d9d3e_e0c782aa463f82be537986665f546aad
p575
sVUin
p576
I0
sVStarFriend
p577
I0
sVStatues
p578
I0
stp579
Rp580
I1
batp581
Rp582
I1
bsS'nickName'
p583
g72
sS'mpList'
p584
g34
(g35
g36
(lp585
tp586
Rp587
I1
bssS'loginInfo'
p588
(dp589
S'SyncKey'
p590
(dp591
VCount
p592
I8
sVList
p593
(lp594
(dp595
VVal
p596
I637734770
sVKey
p597
I1
sa(dp598
VVal
p599
I637735016
sVKey
p600
I2
sa(dp601
VVal
p602
I637734988
sVKey
p603
I3
sa(dp604
VVal
p605
I637734982
sVKey
p606
I11
sa(dp607
VVal
p608
I637730117
sVKey
p609
I13
sa(dp610
VVal
p611
I1497141386
sVKey
p612
I201
sa(dp613
VVal
p614
I1497141187
sVKey
p615
I1000
sa(dp616
VVal
p617
I1497089731
sVKey
p618
I1001
sassS'syncUrl'
p619
S'https://webpush.web.wechat.com/cgi-bin/mmwebwx-bin'
p620
sS'skey'
p621
V@crypt_936d9d3e_e0c782aa463f82be537986665f546aad
p622
sS'wxuin'
p623
V2966625951
p624
sS'synckey'
p625
S'1_637734770|2_637735016|3_637734988|11_637734982|13_637730117|201_1497141386|1000_1497141187|1001_1497089731'
p626
sS'url'
p627
Vhttps://web.wechat.com/cgi-bin/mmwebwx-bin
p628
sS'pass_ticket'
p629
VF0e%2BsZ7%2Byf2s7tF5Mew4OUG4gbvKP%2B0d%2F%2F1za1daIMKOwG1mD7KY%2BcwPevW4eRiC
p630
sS'deviceid'
p631
S'e096210243652501'
p632
sS'wxsid'
p633
VUUnrCSgjrs4TRrs0
p634
sS'InviteStartCount'
p635
I40
sS'fileUrl'
p636
S'https://file.web.wechat.com/cgi-bin/mmwebwx-bin'
p637
sS'BaseRequest'
p638
(dp639
S'Uin'
p640
g624
sS'Skey'
p641
g622
sS'DeviceID'
p642
g630
sS'Sid'
p643
g634
ssS'User'
p644
g34
(g38
g39
(dp645
g41
g31
sg42
g43
sg44
g43
sg45
I0
sg47
g48
sg49
g50
sg51
g50
sg76
I2
sg53
I0
sg54
I0
sg55
g43
sg56
g43
sg57
g50
sg58
g50
sg59
I0
sg60
I0
sg61
I1
sg62
g43
sg63
I0
sg66
I0
sg64
I0
sg65
I0
sg46
I0
sg67
g43
sg68
g69
sg70
I0
sg71
g72
sg73
g50
sg74
g75
sg52
I2966625951
sg77
I0
sg78
I0
stp646
Rp647
I1
bss.