(dp0
S'cookies'
p1
(dp2
S'webwx_data_ticket'
p3
S'gScXxIFlOkRJ+OAtrJfVJwad'
p4
sS'wxuin'
p5
S'2966625951'
p6
sS'webwxuvid'
p7
S'83a442d9bbda8450b4ac5f7beb0166fa64103b04ecfd1f27de04dfb801824e9cbcf67a2590f5ebf418f4e41ada64d5be'
p8
sS'webwx_auth_ticket'
p9
S'CIsBEKO9jfkOGoABXO6F/by8qbPhmm3wbTqFudcDaPKpNsXHNA8VYBJ67Ae/vj54PB3fL4ECVB9A1H8IU5ggqdcUTa+vFXccaDv7qCmXqQ555QghwYS9L+qGDQ9KvkO3kfiYm503P1GrJ0TclD/6+gB3zcJsjlDj9N7leeiHfJuxAvsfNcLXgoNTE+k='
p10
sS'wxloadtime'
p11
S'1494048288_expired'
p12
sS'wxpluginkey'
p13
S'1494052610'
p14
sS'wxsid'
p15
S'f7thmXdyiaOVlSOa'
p16
sS'mm_lang'
p17
S'zh_CN'
p18
ssS'version'
p19
S'1.3.4'
p20
sS'storage'
p21
(dp22
S'userName'
p23
V@00ede72d4ac5fc61610395949c0283ef22c026ef408e65a7cf919b9ab472ed6e
p24
sS'lastInputUserName'
p25
NsS'memberList'
p26
ccopy_reg
_reconstructor
p27
(citchat.storage.templates
ContactList
p28
c__builtin__
list
p29
(lp30
g27
(citchat.storage.templates
User
p31
c__builtin__
dict
p32
(dp33
S'UserName'
p34
g24
sS'City'
p35
S''
p36
sS'DisplayName'
p37
g36
sS'UniFriend'
p38
I0
sS'OwnerUin'
p39
I0
sS'MemberList'
p40
(lp41
sS'PYQuanPin'
p42
V
p43
sS'RemarkPYInitial'
p44
g43
sS'Uin'
p45
I2966625951
sS'AppAccountFlag'
p46
I0
sS'VerifyFlag'
p47
I0
sS'Province'
p48
g36
sS'KeyWord'
p49
g36
sS'RemarkName'
p50
g43
sS'PYInitial'
p51
g43
sS'ChatRoomId'
p52
I0
sS'HideInputBarFlag'
p53
I0
sVHeadImgFlag
p54
I1
sS'EncryChatRoomId'
p55
g36
sS'AttrStatus'
p56
I0
sS'SnsFlag'
p57
I0
sS'MemberCount'
p58
I0
sVWebWxPluginSwitch
p59
I0
sS'Alias'
p60
g36
sS'Signature'
p61
Vwww.KudosData.com
p62
sS'ContactFlag'
p63
I0
sS'NickName'
p64
V\u9177\u8c46\u966a\u804a\u59b9
p65
sS'RemarkPYQuanPin'
p66
g43
sS'HeadImgUrl'
p67
V/cgi-bin/mmwebwx-bin/webwxgeticon?seq=1492394709&username=@00ede72d4ac5fc61610395949c0283ef22c026ef408e65a7cf919b9ab472ed6e&skey=@crypt_936d9d3e_6e717830bbcbe6d6f115f4c9d403751b
p68
sS'Sex'
p69
I2
sS'StarFriend'
p70
I0
sS'Statues'
p71
I0
stp72
Rp73
I1
bag27
(g31
g32
(dp74
VUserName
p75
V@78d755587ace07e09b0435c555f87f84
p76
sVCity
p77
V\u6210\u90fd
p78
sVSnsFlag
p79
I49
sVDisplayName
p80
g43
sVUniFriend
p81
I0
sVMemberCount
p82
I0
sVOwnerUin
p83
I0
sVMemberList
p84
(lp85
sVAlias
p86
g43
sVPYQuanPin
p87
Vbaijie
p88
sVSignature
p89
g43
sVRemarkPYInitial
p90
g43
sVContactFlag
p91
I3
sVUin
p92
I0
sVNickName
p93
V\u767d\u6770
p94
sVAppAccountFlag
p95
I0
sVVerifyFlag
p96
I0
sVRemarkPYQuanPin
p97
g43
sVHeadImgUrl
p98
V/cgi-bin/mmwebwx-bin/webwxgeticon?seq=637732784&username=@78d755587ace07e09b0435c555f87f84&skey=@crypt_936d9d3e_6e717830bbcbe6d6f115f4c9d403751b
p99
sVKeyWord
p100
Va34
p101
sVProvince
p102
V\u56db\u5ddd
p103
sVPYInitial
p104
VBJ
p105
sVRemarkName
p106
g43
sVIsOwner
p107
I0
sVSex
p108
I1
sVStarFriend
p109
I0
sVHideInputBarFlag
p110
I0
sVChatRoomId
p111
I0
sVEncryChatRoomId
p112
g43
sVAttrStatus
p113
I71401509
sVStatues
p114
I0
stp115
Rp116
I1
bag27
(g31
g32
(dp117
VUserName
p118
V@81ec07df76b48b598efa4eec6b1933dc
p119
sVCity
p120
g43
sVSnsFlag
p121
I49
sVDisplayName
p122
g43
sVUniFriend
p123
I0
sVMemberCount
p124
I0
sVOwnerUin
p125
I0
sVMemberList
p126
(lp127
sVAlias
p128
g43
sVPYQuanPin
p129
Vbaihei
p130
sVSignature
p131
g43
sVRemarkPYInitial
p132
g43
sVContactFlag
p133
I3
sVUin
p134
I0
sVNickName
p135
V\u767d\u9ed1
p136
sVAppAccountFlag
p137
I0
sVVerifyFlag
p138
I0
sVRemarkPYQuanPin
p139
g43
sVHeadImgUrl
p140
V/cgi-bin/mmwebwx-bin/webwxgeticon?seq=637730151&username=@81ec07df76b48b598efa4eec6b1933dc&skey=@crypt_936d9d3e_6e717830bbcbe6d6f115f4c9d403751b
p141
sVKeyWord
p142
VTel
p143
sVProvince
p144
VAuckland
p145
sVPYInitial
p146
VBH
p147
sVRemarkName
p148
g43
sVIsOwner
p149
I0
sVSex
p150
I1
sVStarFriend
p151
I0
sVHideInputBarFlag
p152
I0
sVChatRoomId
p153
I0
sVEncryChatRoomId
p154
g43
sVAttrStatus
p155
I100902333
sVStatues
p156
I0
stp157
Rp158
I1
bag27
(g31
g32
(dp159
VUserName
p160
V@70ad471e42415b3e98109f71e2b2adb3
p161
sVCity
p162
g43
sVSnsFlag
p163
I49
sVDisplayName
p164
g43
sVUniFriend
p165
I0
sVMemberCount
p166
I0
sVOwnerUin
p167
I0
sVMemberList
p168
(lp169
sVAlias
p170
g43
sVPYQuanPin
p171
VRichardgulijian
p172
sVSignature
p173
g43
sVRemarkPYInitial
p174
VMRR
p175
sVContactFlag
p176
I257
sVUin
p177
I0
sVNickName
p178
VRichard \u987e\u674e\u5065
p179
sVAppAccountFlag
p180
I0
sVVerifyFlag
p181
I0
sVRemarkPYQuanPin
p182
VMrR
p183
sVHeadImgUrl
p184
V/cgi-bin/mmwebwx-bin/webwxgeticon?seq=637731039&username=@70ad471e42415b3e98109f71e2b2adb3&skey=@crypt_936d9d3e_6e717830bbcbe6d6f115f4c9d403751b
p185
sVKeyWord
p186
Va40
p187
sVProvince
p188
g43
sVPYInitial
p189
VRICHARDGLJ
p190
sVRemarkName
p191
VMr. R
p192
sVIsOwner
p193
I0
sVSex
p194
I1
sVStarFriend
p195
I0
sVHideInputBarFlag
p196
I0
sVChatRoomId
p197
I0
sVEncryChatRoomId
p198
g43
sVAttrStatus
p199
I71411815
sVStatues
p200
I0
stp201
Rp202
I1
bag27
(g31
g32
(dp203
VUserName
p204
V@5e1a0284c5f54ede14eca5cda0d97cbc6d99f9e96ad85a250d633e687710c8cd
p205
sVCity
p206
g43
sVSnsFlag
p207
I17
sVDisplayName
p208
g43
sVUniFriend
p209
I0
sVMemberCount
p210
I0
sVOwnerUin
p211
I0
sVMemberList
p212
(lp213
sVAlias
p214
g43
sVPYQuanPin
p215
VSu
p216
sVSignature
p217
V\u6211\u4e0d\u60f3\u8ddf\u6211\u4e0d\u559c\u6b22\u7684\u4e00\u5207\u63e1\u624b\u8a00\u548c
p218
sVRemarkPYInitial
p219
VMSS
p220
sVContactFlag
p221
I257
sVUin
p222
I0
sVNickName
p223
VSu
p224
sVAppAccountFlag
p225
I0
sVVerifyFlag
p226
I0
sVRemarkPYQuanPin
p227
VMsS
p228
sVHeadImgUrl
p229
V/cgi-bin/mmwebwx-bin/webwxgeticon?seq=637730768&username=@5e1a0284c5f54ede14eca5cda0d97cbc6d99f9e96ad85a250d633e687710c8cd&skey=@crypt_936d9d3e_6e717830bbcbe6d6f115f4c9d403751b
p230
sVKeyWord
p231
g43
sVProvince
p232
g43
sVPYInitial
p233
VSU
p234
sVRemarkName
p235
VMs. S
p236
sVIsOwner
p237
I0
sVSex
p238
I2
sVStarFriend
p239
I0
sVHideInputBarFlag
p240
I0
sVChatRoomId
p241
I0
sVEncryChatRoomId
p242
g43
sVAttrStatus
p243
I104509
sVStatues
p244
I0
stp245
Rp246
I1
batp247
Rp248
I1
bsS'chatroomList'
p249
g27
(g28
g29
(lp250
g27
(citchat.storage.templates
Chatroom
p251
g32
(dp252
VUserName
p253
V@@a45f482ea441cd31d940e520a0c53274357250ad08aafccb959cf6d4aa055f38
p254
sVCity
p255
g43
sVDisplayName
p256
g43
sVUniFriend
p257
I0
sS'Self'
p258
g27
(g31
g32
(dp259
g34
g24
sg35
g36
sg37
g36
sg38
I0
sg39
I0
sg40
(lp260
sg42
g43
sg44
g43
sg45
I2966625951
sg46
I0
sg47
I0
sg48
g36
sg49
g36
sg50
g43
sg51
g43
sg52
I0
sg53
I0
sg54
I1
sg55
g36
sg56
I0
sg57
I0
sg58
I0
sg59
I0
sg60
g36
sg61
g62
sg63
I0
sg64
g65
sg66
g43
sg67
g68
sg69
I2
sg70
I0
sg71
I0
stp261
Rp262
I1
bsVMemberList
p263
g27
(g28
g29
(lp264
tp265
Rp266
I1
bsVPYQuanPin
p267
VkudoupeiliaomeiUATR
p268
sVRemarkPYInitial
p269
g43
sVSex
p270
I0
sVAppAccountFlag
p271
I0
sVVerifyFlag
p272
I0
sVProvince
p273
g43
sVKeyWord
p274
g43
sVRemarkName
p275
g43
sVPYInitial
p276
VKDPLMUATR
p277
sVIsOwner
p278
I1
sVChatRoomId
p279
I0
sVHideInputBarFlag
p280
I0
sVEncryChatRoomId
p281
g43
sVAttrStatus
p282
I0
sVSnsFlag
p283
I0
sVMemberCount
p284
I3
sVOwnerUin
p285
I0
sVAlias
p286
g43
sS'IsAdmin'
p287
NsVSignature
p288
g43
sVContactFlag
p289
I1
sVNickName
p290
V\u9177\u8c46\u966a\u804a\u59b9UAT-R
p291
sVRemarkPYQuanPin
p292
g43
sVHeadImgUrl
p293
V/cgi-bin/mmwebwx-bin/webwxgetheadimg?seq=637732177&username=@@a45f482ea441cd31d940e520a0c53274357250ad08aafccb959cf6d4aa055f38&skey=@crypt_936d9d3e_6e717830bbcbe6d6f115f4c9d403751b
p294
sVUin
p295
I0
sVStarFriend
p296
I0
sVStatues
p297
I0
stp298
Rp299
I1
bag27
(g251
g32
(dp300
VUserName
p301
V@@cf4693ad23b24aeb86ccf9ce494886d660bf9e928cbb6dd471a1e93d8aea9a10
p302
sVCity
p303
g43
sVDisplayName
p304
g43
sVUniFriend
p305
I0
sg258
g27
(g31
g32
(dp306
g34
g24
sg35
g36
sg37
g36
sg38
I0
sg39
I0
sg40
(lp307
sg42
g43
sg44
g43
sg45
I2966625951
sg46
I0
sg47
I0
sg48
g36
sg49
g36
sg50
g43
sg51
g43
sg52
I0
sg53
I0
sg54
I1
sg55
g36
sg56
I0
sg57
I0
sg58
I0
sg59
I0
sg60
g36
sg61
g62
sg63
I0
sg64
g65
sg66
g43
sg67
g68
sg69
I2
sg70
I0
sg71
I0
stp308
Rp309
I1
bsVMemberList
p310
g27
(g28
g29
(lp311
tp312
Rp313
I1
bsVPYQuanPin
p314
g43
sVRemarkPYInitial
p315
g43
sVSex
p316
I0
sVAppAccountFlag
p317
I0
sVVerifyFlag
p318
I0
sVProvince
p319
g43
sVKeyWord
p320
g43
sVRemarkName
p321
g43
sVPYInitial
p322
g43
sVIsOwner
p323
I0
sVChatRoomId
p324
I0
sVHideInputBarFlag
p325
I0
sVEncryChatRoomId
p326
g43
sVAttrStatus
p327
I0
sVSnsFlag
p328
I0
sVMemberCount
p329
I3
sVOwnerUin
p330
I0
sVAlias
p331
g43
sg287
NsVSignature
p332
g43
sVContactFlag
p333
I0
sVNickName
p334
V\u9177\u8c46\u966a\u804a\u59b9UAT-B
p335
sVRemarkPYQuanPin
p336
g43
sVHeadImgUrl
p337
V/cgi-bin/mmwebwx-bin/webwxgetheadimg?seq=0&username=@@cf4693ad23b24aeb86ccf9ce494886d660bf9e928cbb6dd471a1e93d8aea9a10&skey=@crypt_936d9d3e_6e717830bbcbe6d6f115f4c9d403751b
p338
sVUin
p339
I0
sVStarFriend
p340
I0
sVStatues
p341
I1
stp342
Rp343
I1
bag27
(g251
g32
(dp344
VUserName
p345
V@@47d56a3d93f39c8bea4d52fd4d45276625f507b888dde8132a18b635b9e8ebdb
p346
sVCity
p347
g43
sVDisplayName
p348
g43
sVUniFriend
p349
I0
sg258
g27
(g31
g32
(dp350
g34
g24
sg35
g36
sg37
g36
sg38
I0
sg39
I0
sg40
(lp351
sg42
g43
sg44
g43
sg45
I2966625951
sg46
I0
sg47
I0
sg48
g36
sg49
g36
sg50
g43
sg51
g43
sg52
I0
sg53
I0
sg54
I1
sg55
g36
sg56
I0
sg57
I0
sg58
I0
sg59
I0
sg60
g36
sg61
g62
sg63
I0
sg64
g65
sg66
g43
sg67
g68
sg69
I2
sg70
I0
sg71
I0
stp352
Rp353
I1
bsVMemberList
p354
g27
(g28
g29
(lp355
tp356
Rp357
I1
bsVPYQuanPin
p358
VAucklandDataScienceLovers
p359
sVRemarkPYInitial
p360
g43
sVSex
p361
I0
sVAppAccountFlag
p362
I0
sVVerifyFlag
p363
I0
sVProvince
p364
g43
sVKeyWord
p365
g43
sVRemarkName
p366
g43
sVPYInitial
p367
VAUCKLANDDATASCIENCELOVERS
p368
sVIsOwner
p369
I0
sVChatRoomId
p370
I0
sVHideInputBarFlag
p371
I0
sVEncryChatRoomId
p372
g43
sVAttrStatus
p373
I0
sVSnsFlag
p374
I0
sVMemberCount
p375
I8
sVOwnerUin
p376
I0
sVAlias
p377
g43
sg287
NsVSignature
p378
g43
sVContactFlag
p379
I1
sVNickName
p380
VAuckland Data Science Lovers
p381
sVRemarkPYQuanPin
p382
g43
sVHeadImgUrl
p383
V/cgi-bin/mmwebwx-bin/webwxgetheadimg?seq=637731878&username=@@47d56a3d93f39c8bea4d52fd4d45276625f507b888dde8132a18b635b9e8ebdb&skey=@crypt_936d9d3e_6e717830bbcbe6d6f115f4c9d403751b
p384
sVUin
p385
I0
sVStarFriend
p386
I0
sVStatues
p387
I0
stp388
Rp389
I1
bag27
(g251
g32
(dp390
VUserName
p391
V@@4b432d6030c5803927e85692e6eac0c0171281ada7e2b424dd57f5e4f5e47dcd
p392
sVCity
p393
g43
sVDisplayName
p394
g43
sVUniFriend
p395
I0
sg258
g27
(g31
g32
(dp396
g34
g24
sg35
g36
sg37
g36
sg38
I0
sg39
I0
sg40
(lp397
sg42
g43
sg44
g43
sg45
I2966625951
sg46
I0
sg47
I0
sg48
g36
sg49
g36
sg50
g43
sg51
g43
sg52
I0
sg53
I0
sg54
I1
sg55
g36
sg56
I0
sg57
I0
sg58
I0
sg59
I0
sg60
g36
sg61
g62
sg63
I0
sg64
g65
sg66
g43
sg67
g68
sg69
I2
sg70
I0
sg71
I0
stp398
Rp399
I1
bsVMemberList
p400
g27
(g28
g29
(lp401
tp402
Rp403
I1
bsVPYQuanPin
p404
g43
sVRemarkPYInitial
p405
g43
sVSex
p406
I0
sVAppAccountFlag
p407
I0
sVVerifyFlag
p408
I0
sVProvince
p409
g43
sVKeyWord
p410
g43
sVRemarkName
p411
g43
sVPYInitial
p412
g43
sVIsOwner
p413
I0
sVChatRoomId
p414
I0
sVHideInputBarFlag
p415
I0
sVEncryChatRoomId
p416
g43
sVAttrStatus
p417
I0
sVSnsFlag
p418
I0
sVMemberCount
p419
I10
sVOwnerUin
p420
I0
sVAlias
p421
g43
sg287
NsVSignature
p422
g43
sVContactFlag
p423
I2
sVNickName
p424
V\u5927\u9646\u5ba2\u5728\u6fb3\u6d32
p425
sVRemarkPYQuanPin
p426
g43
sVHeadImgUrl
p427
V/cgi-bin/mmwebwx-bin/webwxgetheadimg?seq=637732566&username=@@4b432d6030c5803927e85692e6eac0c0171281ada7e2b424dd57f5e4f5e47dcd&skey=@crypt_936d9d3e_6e717830bbcbe6d6f115f4c9d403751b
p428
sVUin
p429
I0
sVStarFriend
p430
I0
sVStatues
p431
I1
stp432
Rp433
I1
bag27
(g251
g32
(dp434
VUserName
p435
V@@6c8e47915f94781c1f030187692eaf71a84852d0ca823f53cca3380d99ce5753
p436
sVCity
p437
g43
sVDisplayName
p438
g43
sVUniFriend
p439
I0
sg258
g27
(citchat.storage.templates
ChatroomMember
p440
g32
(dp441
VUserName
p442
V@00ede72d4ac5fc61610395949c0283ef22c026ef408e65a7cf919b9ab472ed6e
p443
sVRemarkPYQuanPin
p444
g43
sVDisplayName
p445
g43
sVKeyWord
p446
g43
sVPYInitial
p447
g43
sVUin
p448
I0
sVMemberStatus
p449
I0
sVPYQuanPin
p450
g43
sVRemarkPYInitial
p451
g43
sVNickName
p452
V\u9177\u8c46\u966a\u804a\u59b9
p453
sVAttrStatus
p454
I33689637
stp455
Rp456
I1
bsVMemberList
p457
g27
(g28
g29
(lp458
g27
(g440
g32
(dp459
VUserName
p460
V@d38caf027abbaa5527e08bc1e49d844d9d743b23fa850c5a830bb07d7ce4202c
p461
sVRemarkPYQuanPin
p462
g43
sVDisplayName
p463
g43
sVKeyWord
p464
g43
sVPYInitial
p465
g43
sVUin
p466
I0
sVMemberStatus
p467
I0
sVPYQuanPin
p468
g43
sVRemarkPYInitial
p469
g43
sVNickName
p470
V\u7a57\u5609
p471
sVAttrStatus
p472
I33787941
stp473
Rp474
I1
bag27
(g440
g32
(dp475
VUserName
p476
V@81ec07df76b48b598efa4eec6b1933dc
p477
sVRemarkPYQuanPin
p478
g43
sVDisplayName
p479
V\u9177\u8c46\u6570\u636e\u79d1\u5b66\u5bb6 \u987e\u77bb Sam
p480
sVKeyWord
p481
VTel
p482
sVPYInitial
p483
g43
sVUin
p484
I0
sVMemberStatus
p485
I0
sVPYQuanPin
p486
g43
sVRemarkPYInitial
p487
g43
sVNickName
p488
V\u767d\u9ed1
p489
sVAttrStatus
p490
I100902333
stp491
Rp492
I1
bag27
(g440
g32
(dp493
VUserName
p494
V@d8e38a22fd2b5204f0b923644b339cef
p495
sVRemarkPYQuanPin
p496
g43
sVDisplayName
p497
g43
sVKeyWord
p498
Vliu
p499
sVPYInitial
p500
g43
sVUin
p501
I0
sVMemberStatus
p502
I0
sVPYQuanPin
p503
g43
sVRemarkPYInitial
p504
g43
sVNickName
p505
V\u725b\u6012\u8981\u52a0\u6cb9
p506
sVAttrStatus
p507
I100391
stp508
Rp509
I1
bag27
(g440
g32
(dp510
VUserName
p511
V@f0fc3a833d7efcd70fab1c4cb88a47d99e26054589c30f33fcb72108a1b87ad5
p512
sVRemarkPYQuanPin
p513
g43
sVDisplayName
p514
g43
sVKeyWord
p515
g43
sVPYInitial
p516
g43
sVUin
p517
I0
sVMemberStatus
p518
I0
sVPYQuanPin
p519
g43
sVRemarkPYInitial
p520
g43
sVNickName
p521
VCalvin Duy Canh Tran
p522
sVAttrStatus
p523
I233477
stp524
Rp525
I1
bag27
(g440
g32
(dp526
VUserName
p527
V@550ba9e34b65a5b459ea7eb4ae59b3ceaadbe6fa858f24768482e611f75cf4d9
p528
sVRemarkPYQuanPin
p529
g43
sVDisplayName
p530
g43
sVKeyWord
p531
g43
sVPYInitial
p532
g43
sVUin
p533
I0
sVMemberStatus
p534
I0
sVPYQuanPin
p535
g43
sVRemarkPYInitial
p536
g43
sVNickName
p537
VWanwen
p538
sVAttrStatus
p539
I67211269
stp540
Rp541
I1
bag27
(g440
g32
(dp542
VUserName
p543
V@4ffbacfa0c3e504f9120773f7c7565c8ead4dd8e670e5b86da32913267382fd6
p544
sVRemarkPYQuanPin
p545
g43
sVDisplayName
p546
g43
sVKeyWord
p547
g43
sVPYInitial
p548
g43
sVUin
p549
I0
sVMemberStatus
p550
I0
sVPYQuanPin
p551
g43
sVRemarkPYInitial
p552
g43
sVNickName
p553
V\u5c0f\u9e2d\u5b50
p554
sVAttrStatus
p555
I100769895
stp556
Rp557
I1
bag27
(g440
g32
(dp558
VUserName
p559
V@4df181215181dc15ee5f8831b8ee859d
p560
sVRemarkPYQuanPin
p561
g43
sVDisplayName
p562
V\u4e0a\u6d77\u5f00\u534e\u674e\u6625\u656c
p563
sVKeyWord
p564
Vli_
p565
sVPYInitial
p566
g43
sVUin
p567
I0
sVMemberStatus
p568
I0
sVPYQuanPin
p569
g43
sVRemarkPYInitial
p570
g43
sVNickName
p571
V\u6625\u656c\u8fdc\u65b9
p572
sVAttrStatus
p573
I16903271
stp574
Rp575
I1
bag27
(g440
g32
(dp576
VUserName
p577
V@47fceea443a56e8f81ee5b55e86b137c13161e385f44696065094803bd69ad3d
p578
sVRemarkPYQuanPin
p579
g43
sVDisplayName
p580
V\u9177\u8c46\u673a\u5668\u4eba
p581
sVKeyWord
p582
g43
sVPYInitial
p583
g43
sVUin
p584
I0
sVMemberStatus
p585
I0
sVPYQuanPin
p586
g43
sVRemarkPYInitial
p587
g43
sVNickName
p588
V\u67ef\u897f
p589
sVAttrStatus
p590
I67879
stp591
Rp592
I1
bag27
(g440
g32
(dp593
VUserName
p594
V@85050a998e5b489866acd57d87c361ef2a8c594f91719fa2150ee36bcda2b19f
p595
sVRemarkPYQuanPin
p596
g43
sVDisplayName
p597
g43
sVKeyWord
p598
g43
sVPYInitial
p599
g43
sVUin
p600
I0
sVMemberStatus
p601
I0
sVPYQuanPin
p602
g43
sVRemarkPYInitial
p603
g43
sVNickName
p604
V\u5c0f\u96e8
p605
sVAttrStatus
p606
I101925
stp607
Rp608
I1
bag27
(g440
g32
(dp609
VUserName
p610
V@c5b9c3086572a4b3a90a8cd77553ee1d
p611
sVRemarkPYQuanPin
p612
g43
sVDisplayName
p613
g43
sVKeyWord
p614
Va26
p615
sVPYInitial
p616
g43
sVUin
p617
I0
sVMemberStatus
p618
I0
sVPYQuanPin
p619
g43
sVRemarkPYInitial
p620
g43
sVNickName
p621
VCaroline\u5b50\u65ed 
p622
sVAttrStatus
p623
I67209445
stp624
Rp625
I1
bag27
(g440
g32
(dp626
VUserName
p627
V@1fca9f31fb92eece7922a847c8b95bda
p628
sVRemarkPYQuanPin
p629
g43
sVDisplayName
p630
g43
sVKeyWord
p631
VPau
p632
sVPYInitial
p633
g43
sVUin
p634
I0
sVMemberStatus
p635
I0
sVPYQuanPin
p636
g43
sVRemarkPYInitial
p637
g43
sVNickName
p638
VPaul
p639
sVAttrStatus
p640
I37875815
stp641
Rp642
I1
bag27
(g440
g32
(dp643
VUserName
p644
V@3d0b884dfdf8e64462cce86f223f0761
p645
sVRemarkPYQuanPin
p646
g43
sVDisplayName
p647
g43
sVKeyWord
p648
Vqq3
p649
sVPYInitial
p650
g43
sVUin
p651
I0
sVMemberStatus
p652
I0
sVPYQuanPin
p653
g43
sVRemarkPYInitial
p654
g43
sVNickName
p655
V\u5143
p656
sVAttrStatus
p657
I100391
stp658
Rp659
I1
bag27
(g440
g32
(dp660
VUserName
p661
V@2931cc5ff9a3d3e1ca7f3316039844d8371816bfbd448f59bba6878f4a067361
p662
sVRemarkPYQuanPin
p663
g43
sVDisplayName
p664
V\u4e2d\u884c-\u5434\u9759
p665
sVKeyWord
p666
g43
sVPYInitial
p667
g43
sVUin
p668
I0
sVMemberStatus
p669
I0
sVPYQuanPin
p670
g43
sVRemarkPYInitial
p671
g43
sVNickName
p672
Vjudy
p673
sVAttrStatus
p674
I98341
stp675
Rp676
I1
bag27
(g440
g32
(dp677
VUserName
p678
V@7e7e92a6681c26741f8b04c3ab2e9c60
p679
sVRemarkPYQuanPin
p680
g43
sVDisplayName
p681
g43
sVKeyWord
p682
VMax
p683
sVPYInitial
p684
g43
sVUin
p685
I0
sVMemberStatus
p686
I0
sVPYQuanPin
p687
g43
sVRemarkPYInitial
p688
g43
sVNickName
p689
VMaxWhale
p690
sVAttrStatus
p691
I110975
stp692
Rp693
I1
bag27
(g440
g32
(dp694
VUserName
p695
V@d6d372455352b04b5fd0d070f4bf68ef
p696
sVRemarkPYQuanPin
p697
g43
sVDisplayName
p698
g43
sVKeyWord
p699
Vste
p700
sVPYInitial
p701
g43
sVUin
p702
I0
sVMemberStatus
p703
I0
sVPYQuanPin
p704
g43
sVRemarkPYInitial
p705
g43
sVNickName
p706
VYang Hui
p707
sVAttrStatus
p708
I98359
stp709
Rp710
I1
bag27
(g440
g32
(dp711
VUserName
p712
V@bd6580944a444586caeceb018d008e7b78cb08c34d19382e61f46828f74d2957
p713
sVRemarkPYQuanPin
p714
g43
sVDisplayName
p715
g43
sVKeyWord
p716
g43
sVPYInitial
p717
g43
sVUin
p718
I0
sVMemberStatus
p719
I0
sVPYQuanPin
p720
g43
sVRemarkPYInitial
p721
g43
sVNickName
p722
V\u7d20\u5fc3\u7d20\u989c
p723
sVAttrStatus
p724
I103461
stp725
Rp726
I1
bag27
(g440
g32
(dp727
VUserName
p728
V@488577727936e017405ed26fabe41df1d9795c684b96c8ada2f2ce0494814ae9
p729
sVRemarkPYQuanPin
p730
g43
sVDisplayName
p731
g43
sVKeyWord
p732
g43
sVPYInitial
p733
g43
sVUin
p734
I0
sVMemberStatus
p735
I0
sVPYQuanPin
p736
g43
sVRemarkPYInitial
p737
g43
sVNickName
p738
V\u7ae0\u4e3d\u5a1c
p739
sVAttrStatus
p740
I2147586085
stp741
Rp742
I1
bag27
(g440
g32
(dp743
VUserName
p744
V@70ad471e42415b3e98109f71e2b2adb3
p745
sVRemarkPYQuanPin
p746
g43
sVDisplayName
p747
VRichard
p748
sVKeyWord
p749
Va40
p750
sVPYInitial
p751
g43
sVUin
p752
I0
sVMemberStatus
p753
I0
sVPYQuanPin
p754
g43
sVRemarkPYInitial
p755
g43
sVNickName
p756
VMr. R
p757
sVAttrStatus
p758
I71411815
stp759
Rp760
I1
bag456
atp761
Rp762
I1
bsVPYQuanPin
p763
VkudoushujukexuefenxiangKudosDatacom
p764
sVRemarkPYInitial
p765
g43
sVSex
p766
I0
sVAppAccountFlag
p767
I0
sVVerifyFlag
p768
I0
sVProvince
p769
g43
sVKeyWord
p770
g43
sVRemarkName
p771
g43
sVPYInitial
p772
VKDSJKXFXKUDOSDATACOM
p773
sVIsOwner
p774
I0
sVChatRoomId
p775
I0
sVHideInputBarFlag
p776
I0
sVEncryChatRoomId
p777
V@27de968839cce1a84bf6c1cf311d4323
p778
sVAttrStatus
p779
I0
sVSnsFlag
p780
I0
sVMemberCount
p781
I19
sVOwnerUin
p782
I0
sVAlias
p783
g43
sg287
NsVSignature
p784
g43
sVContactFlag
p785
I1
sVNickName
p786
V\u9177\u8c46\u6570\u636e\u79d1\u5b66\u5206\u4eab KudosData.com
p787
sVRemarkPYQuanPin
p788
g43
sVHeadImgUrl
p789
V/cgi-bin/mmwebwx-bin/webwxgetheadimg?seq=637730366&username=@@6c8e47915f94781c1f030187692eaf71a84852d0ca823f53cca3380d99ce5753&skey=
p790
sVUin
p791
I0
sVStarFriend
p792
I0
sVStatues
p793
I0
stp794
Rp795
I1
bag27
(g251
g32
(dp796
VUserName
p797
V@00ede72d4ac5fc61610395949c0283ef22c026ef408e65a7cf919b9ab472ed6e
p798
sVCity
p799
g43
sVDisplayName
p800
g43
sVUniFriend
p801
I0
sg258
g27
(g31
g32
(dp802
g34
g24
sg35
g36
sg37
g36
sg38
I0
sg39
I0
sg40
(lp803
sg42
g43
sg44
g43
sg45
I2966625951
sg46
I0
sg47
I0
sg48
g36
sg49
g36
sg50
g43
sg51
g43
sg52
I0
sg53
I0
sg54
I1
sg55
g36
sg56
I0
sg57
I0
sg58
I0
sg59
I0
sg60
g36
sg61
g62
sg63
I0
sg64
g65
sg66
g43
sg67
g68
sg69
I2
sg70
I0
sg71
I0
stp804
Rp805
I1
bsVMemberList
p806
g27
(g28
g29
(lp807
tp808
Rp809
I1
bsVPYQuanPin
p810
g43
sVRemarkPYInitial
p811
g43
sVSex
p812
I0
sVAppAccountFlag
p813
I0
sVVerifyFlag
p814
I0
sVProvince
p815
g43
sVKeyWord
p816
g43
sVRemarkName
p817
g43
sVPYInitial
p818
g43
sVIsOwner
p819
I0
sVChatRoomId
p820
I0
sVHideInputBarFlag
p821
I0
sVEncryChatRoomId
p822
g43
sVAttrStatus
p823
I0
sVSnsFlag
p824
I0
sVMemberCount
p825
I0
sVOwnerUin
p826
I0
sVAlias
p827
g43
sg287
NsVSignature
p828
g43
sVContactFlag
p829
I0
sVNickName
p830
g43
sVRemarkPYQuanPin
p831
g43
sVHeadImgUrl
p832
g43
sVUin
p833
I0
sVStarFriend
p834
I0
sVStatues
p835
I0
stp836
Rp837
I1
batp838
Rp839
I1
bsS'nickName'
p840
g65
sS'mpList'
p841
g27
(g28
g29
(lp842
tp843
Rp844
I1
bssS'loginInfo'
p845
(dp846
S'SyncKey'
p847
(dp848
VCount
p849
I8
sVList
p850
(lp851
(dp852
VVal
p853
I637732743
sVKey
p854
I1
sa(dp855
VVal
p856
I637732824
sVKey
p857
I2
sa(dp858
VVal
p859
I637732784
sVKey
p860
I3
sa(dp861
VVal
p862
I637732693
sVKey
p863
I11
sa(dp864
VVal
p865
I637730117
sVKey
p866
I13
sa(dp867
VVal
p868
I1494055986
sVKey
p869
I201
sa(dp870
VVal
p871
I1494052610
sVKey
p872
I1000
sa(dp873
VVal
p874
I1494043771
sVKey
p875
I1001
sassS'syncUrl'
p876
S'https://webpush.web.wechat.com/cgi-bin/mmwebwx-bin'
p877
sS'skey'
p878
V@crypt_936d9d3e_6e717830bbcbe6d6f115f4c9d403751b
p879
sS'wxuin'
p880
V2966625951
p881
sS'synckey'
p882
S'1_637732743|2_637732824|3_637732784|11_637732693|13_637730117|201_1494055986|1000_1494052610|1001_1494043771'
p883
sS'url'
p884
Vhttps://web.wechat.com/cgi-bin/mmwebwx-bin
p885
sS'pass_ticket'
p886
Vwo1x1nf4wHLe8X5WijOdXxGkviPleFZ%2FbKkgGtOjNO5BbipKZX0imX2K%2F858EHte
p887
sS'wxsid'
p888
Vf7thmXdyiaOVlSOa
p889
sS'InviteStartCount'
p890
I40
sS'deviceid'
p891
S'e070340284664168'
p892
sS'fileUrl'
p893
S'https://file.web.wechat.com/cgi-bin/mmwebwx-bin'
p894
sS'BaseRequest'
p895
(dp896
S'Uin'
p897
g881
sS'Skey'
p898
g879
sS'DeviceID'
p899
g887
sS'Sid'
p900
g889
ssS'User'
p901
g27
(g31
g32
(dp902
g34
g24
sg35
g36
sg37
g36
sg38
I0
sg40
g41
sg42
g43
sg44
g43
sg69
I2
sg46
I0
sg47
I0
sg48
g36
sg49
g36
sg50
g43
sg51
g43
sg52
I0
sg53
I0
sg54
I1
sg55
g36
sg56
I0
sg59
I0
sg57
I0
sg58
I0
sg39
I0
sg60
g36
sg61
g62
sg63
I0
sg64
g65
sg66
g43
sg67
g68
sg45
I2966625951
sg70
I0
sg71
I0
stp903
Rp904
I1
bss.